; ModuleID = '23/899.c'
source_filename = "23/899.c"
target datalayout = "e-m:e-p270:32:32-p271:32:32-p272:64:64-i64:64-f80:128-n8:16:32:64-S128"
target triple = "x86_64-pc-linux-gnu"

@.str = private unnamed_addr constant [3 x i8] c"%s\00", align 1

; Function Attrs: noinline nounwind uwtable
define dso_local i32 @main() #0 {
  %1 = alloca i32, align 4
  %2 = alloca [101 x i8], align 16
  %3 = alloca [101 x i8], align 16
  %4 = alloca i32, align 4
  %5 = alloca i32, align 4
  %6 = alloca i32, align 4
  %7 = alloca i32, align 4
  %8 = alloca i32, align 4
  %9 = alloca i32, align 4
  store i32 0, i32* %1, align 4
  %10 = bitcast [101 x i8]* %3 to i8*
  call void @llvm.memset.p0i8.i64(i8* align 16 %10, i8 0, i64 101, i1 false)
  %11 = bitcast i8* %10 to <{ i8, [100 x i8] }>*
  %12 = getelementptr inbounds <{ i8, [100 x i8] }>, <{ i8, [100 x i8] }>* %11, i32 0, i32 0
  store i8 97, i8* %12, align 16
  store i32 0, i32* %9, align 4
  %13 = getelementptr inbounds [101 x i8], [101 x i8]* %2, i64 0, i64 0
  %14 = call i32 (i8*, ...) bitcast (i32 (...)* @gets to i32 (i8*, ...)*)(i8* %13)
  %15 = getelementptr inbounds [101 x i8], [101 x i8]* %2, i64 0, i64 0
  %16 = call i64 @strlen(i8* %15) #4
  %17 = trunc i64 %16 to i32
  store i32 %17, i32* %4, align 4
  store i32 0, i32* %6, align 4
  br label %18

18:                                               ; preds = %31, %0
  %19 = load i32, i32* %6, align 4
  %20 = load i32, i32* %4, align 4
  %21 = icmp slt i32 %19, %20
  br i1 %21, label %22, label %34

22:                                               ; preds = %18
  %23 = load i32, i32* %6, align 4
  %24 = sext i32 %23 to i64
  %25 = getelementptr inbounds [101 x i8], [101 x i8]* %2, i64 0, i64 %24
  %26 = load i8, i8* %25, align 1
  %27 = sext i8 %26 to i32
  %28 = icmp eq i32 %27, 32
  br i1 %28, label %29, label %30

29:                                               ; preds = %22
  br label %34

30:                                               ; preds = %22
  br label %31

31:                                               ; preds = %30
  %32 = load i32, i32* %6, align 4
  %33 = add nsw i32 %32, 1
  store i32 %33, i32* %6, align 4
  br label %18

34:                                               ; preds = %29, %18
  %35 = load i32, i32* %6, align 4
  %36 = load i32, i32* %4, align 4
  %37 = icmp eq i32 %35, %36
  br i1 %37, label %38, label %41

38:                                               ; preds = %34
  %39 = getelementptr inbounds [101 x i8], [101 x i8]* %2, i64 0, i64 0
  %40 = call i32 (i8*, ...) @printf(i8* getelementptr inbounds ([3 x i8], [3 x i8]* @.str, i64 0, i64 0), i8* %39)
  br label %136

41:                                               ; preds = %34
  %42 = load i32, i32* %4, align 4
  %43 = sub nsw i32 %42, 1
  store i32 %43, i32* %6, align 4
  br label %44

44:                                               ; preds = %58, %41
  %45 = load i32, i32* %6, align 4
  %46 = icmp sge i32 %45, 0
  br i1 %46, label %47, label %61

47:                                               ; preds = %44
  %48 = load i32, i32* %6, align 4
  %49 = sext i32 %48 to i64
  %50 = getelementptr inbounds [101 x i8], [101 x i8]* %2, i64 0, i64 %49
  %51 = load i8, i8* %50, align 1
  %52 = sext i8 %51 to i32
  %53 = icmp eq i32 %52, 32
  br i1 %53, label %54, label %57

54:                                               ; preds = %47
  %55 = load i32, i32* %6, align 4
  %56 = add nsw i32 %55, -1
  store i32 %56, i32* %6, align 4
  br label %58

57:                                               ; preds = %47
  br label %61

58:                                               ; preds = %54
  %59 = load i32, i32* %6, align 4
  %60 = add nsw i32 %59, -1
  store i32 %60, i32* %6, align 4
  br label %44

61:                                               ; preds = %57, %44
  %62 = load i32, i32* %6, align 4
  store i32 %62, i32* %5, align 4
  br label %63

63:                                               ; preds = %111, %61
  %64 = load i32, i32* %5, align 4
  %65 = icmp sge i32 %64, 0
  br i1 %65, label %66, label %114

66:                                               ; preds = %63
  %67 = load i32, i32* %5, align 4
  %68 = sext i32 %67 to i64
  %69 = getelementptr inbounds [101 x i8], [101 x i8]* %2, i64 0, i64 %68
  %70 = load i8, i8* %69, align 1
  %71 = sext i8 %70 to i32
  %72 = icmp eq i32 %71, 32
  br i1 %72, label %73, label %110

73:                                               ; preds = %66
  %74 = load i32, i32* %5, align 4
  store i32 %74, i32* %7, align 4
  %75 = load i32, i32* %5, align 4
  %76 = add nsw i32 %75, 1
  store i32 %76, i32* %6, align 4
  %77 = load i32, i32* %9, align 4
  store i32 %77, i32* %8, align 4
  br label %78

78:                                               ; preds = %99, %73
  %79 = load i32, i32* %6, align 4
  %80 = sext i32 %79 to i64
  %81 = getelementptr inbounds [101 x i8], [101 x i8]* %2, i64 0, i64 %80
  %82 = load i8, i8* %81, align 1
  %83 = sext i8 %82 to i32
  %84 = icmp ne i32 %83, 32
  br i1 %84, label %85, label %89

85:                                               ; preds = %78
  %86 = load i32, i32* %6, align 4
  %87 = load i32, i32* %4, align 4
  %88 = icmp slt i32 %86, %87
  br label %89

89:                                               ; preds = %85, %78
  %90 = phi i1 [ false, %78 ], [ %88, %85 ]
  br i1 %90, label %91, label %104

91:                                               ; preds = %89
  %92 = load i32, i32* %6, align 4
  %93 = sext i32 %92 to i64
  %94 = getelementptr inbounds [101 x i8], [101 x i8]* %2, i64 0, i64 %93
  %95 = load i8, i8* %94, align 1
  %96 = load i32, i32* %8, align 4
  %97 = sext i32 %96 to i64
  %98 = getelementptr inbounds [101 x i8], [101 x i8]* %3, i64 0, i64 %97
  store i8 %95, i8* %98, align 1
  br label %99

99:                                               ; preds = %91
  %100 = load i32, i32* %6, align 4
  %101 = add nsw i32 %100, 1
  store i32 %101, i32* %6, align 4
  %102 = load i32, i32* %8, align 4
  %103 = add nsw i32 %102, 1
  store i32 %103, i32* %8, align 4
  br label %78

104:                                              ; preds = %89
  %105 = load i32, i32* %8, align 4
  %106 = sext i32 %105 to i64
  %107 = getelementptr inbounds [101 x i8], [101 x i8]* %3, i64 0, i64 %106
  store i8 32, i8* %107, align 1
  %108 = load i32, i32* %8, align 4
  %109 = add nsw i32 %108, 1
  store i32 %109, i32* %9, align 4
  br label %110

110:                                              ; preds = %104, %66
  br label %111

111:                                              ; preds = %110
  %112 = load i32, i32* %5, align 4
  %113 = add nsw i32 %112, -1
  store i32 %113, i32* %5, align 4
  br label %63

114:                                              ; preds = %63
  store i32 0, i32* %5, align 4
  br label %115

115:                                              ; preds = %128, %114
  %116 = load i32, i32* %5, align 4
  %117 = load i32, i32* %7, align 4
  %118 = icmp slt i32 %116, %117
  br i1 %118, label %119, label %133

119:                                              ; preds = %115
  %120 = load i32, i32* %5, align 4
  %121 = sext i32 %120 to i64
  %122 = getelementptr inbounds [101 x i8], [101 x i8]* %2, i64 0, i64 %121
  %123 = load i8, i8* %122, align 1
  %124 = load i32, i32* %8, align 4
  %125 = add nsw i32 %124, 1
  %126 = sext i32 %125 to i64
  %127 = getelementptr inbounds [101 x i8], [101 x i8]* %3, i64 0, i64 %126
  store i8 %123, i8* %127, align 1
  br label %128

128:                                              ; preds = %119
  %129 = load i32, i32* %5, align 4
  %130 = add nsw i32 %129, 1
  store i32 %130, i32* %5, align 4
  %131 = load i32, i32* %8, align 4
  %132 = add nsw i32 %131, 1
  store i32 %132, i32* %8, align 4
  br label %115

133:                                              ; preds = %115
  %134 = getelementptr inbounds [101 x i8], [101 x i8]* %3, i64 0, i64 0
  %135 = call i32 (i8*, ...) @printf(i8* getelementptr inbounds ([3 x i8], [3 x i8]* @.str, i64 0, i64 0), i8* %134)
  br label %136

136:                                              ; preds = %133, %38
  ret i32 1
}

; Function Attrs: argmemonly nounwind willreturn
declare void @llvm.memset.p0i8.i64(i8* nocapture writeonly, i8, i64, i1 immarg) #1

declare dso_local i32 @gets(...) #2

; Function Attrs: nounwind readonly
declare dso_local i64 @strlen(i8*) #3

declare dso_local i32 @printf(i8*, ...) #2


!llvm.module.flags = !{!0}
!llvm.ident = !{!1}

!0 = !{i32 1, !"wchar_size", i32 4}
!1 = !{!"clang version 10.0.0-4ubuntu1 "}
